target datalayout = "e-m:e-p270:32:32-p271:32:32-p272:64:64-i64:64-i128:128-f80:128-n8:16:32:64-S128"
target triple = "x86_64-pc-linux-gnu"

%union.anon = type { ptr }
%struct.FFCodec = type { %struct.AVCodec, i32, i32, ptr, ptr, ptr, ptr, %union.anon, ptr, ptr, ptr, ptr, ptr, ptr }
%struct.AVCodec = type { ptr, ptr, i32, i32, i32, i8, ptr, ptr, ptr, ptr, ptr, ptr, ptr, ptr }
%struct.AVCodecContext = type { ptr, i32, i32, ptr, i32, i32, ptr, ptr, ptr, i64, i32, i32, ptr, i32, %struct.AVRational, %struct.AVRational, %struct.AVRational, i32, i32, i32, i32, i32, %struct.AVRational, i32, i32, i32, i32, i32, i32, i32, i32, i32, i32, i32, ptr, ptr, i32, float, float, float, float, float, float, float, float, float, i32, i32, i32, i32, i32, i32, i32, i32, i32, i32, i32, i32, ptr, ptr, ptr, i32, i32, i32, i32, i32, i32, i32, i32, i32, i32, %struct.AVChannelLayout, i32, i32, i32, i32, i32, i32, i32, i32, ptr, i32, i32, i32, float, float, i32, i32, i32, i32, i32, ptr, i64, i64, float, float, i32, i32, ptr, ptr, i32, i32, i32, i32, i32, ptr, ptr, ptr, ptr, i32, i32, [8 x i64], i32, i32, i32, i32, i32, i32, i32, ptr, ptr, i32, i32, i32, i32, i32, i32, i32, i32, i32, i32, ptr, ptr, i32, i32, ptr, ptr, ptr, ptr, i32, i32, i64, i32, i32, i64, ptr, i64, ptr, i32, ptr, i32 }
%struct.AVRational = type { i32, i32 }
%struct.AVChannelLayout = type { i32, i32, %union.anon.0, ptr }
%union.anon.0 = type { i64 }
%struct.CRIContext = type { ptr, ptr, ptr, %struct.GetByteContext, i32, ptr, i32, [4 x i64] }
%struct.GetByteContext = type { ptr, ptr, ptr }

@ff_mjpeg_decoder = external hidden constant %struct.FFCodec, align 8

; Function Attrs: cold nounwind optsize uwtable
define internal i32 @cri_decode_init(ptr noundef %0) #0 {
  %2 = alloca i32, align 4
  %3 = alloca ptr, align 8
  %4 = alloca ptr, align 8
  %5 = alloca i32, align 4
  %6 = alloca i32, align 4
  store ptr %0, ptr %3, align 8, !tbaa !4
  call void @llvm.lifetime.start.p0(i64 8, ptr %4) #10
  %7 = load ptr, ptr %3, align 8, !tbaa !4
  %8 = getelementptr inbounds nuw %struct.AVCodecContext, ptr %7, i32 0, i32 6
  %9 = load ptr, ptr %8, align 8, !tbaa !9
  store ptr %9, ptr %4, align 8, !tbaa !29
  call void @llvm.lifetime.start.p0(i64 4, ptr %5) #10
  %10 = call ptr @av_frame_alloc()
  %11 = load ptr, ptr %4, align 8, !tbaa !29
  %12 = getelementptr inbounds nuw %struct.CRIContext, ptr %11, i32 0, i32 2
  store ptr %10, ptr %12, align 8, !tbaa !31
  %13 = load ptr, ptr %4, align 8, !tbaa !29
  %14 = getelementptr inbounds nuw %struct.CRIContext, ptr %13, i32 0, i32 2
  %15 = load ptr, ptr %14, align 8, !tbaa !31
  %16 = icmp ne ptr %15, null
  br i1 %16, label %18, label %17

17:                                               ; preds = %1
  store i32 -12, ptr %2, align 4
  store i32 1, ptr %6, align 4
  br label %67

18:                                               ; preds = %1
  %19 = call ptr @av_packet_alloc()
  %20 = load ptr, ptr %4, align 8, !tbaa !29
  %21 = getelementptr inbounds nuw %struct.CRIContext, ptr %20, i32 0, i32 1
  store ptr %19, ptr %21, align 8, !tbaa !36
  %22 = load ptr, ptr %4, align 8, !tbaa !29
  %23 = getelementptr inbounds nuw %struct.CRIContext, ptr %22, i32 0, i32 1
  %24 = load ptr, ptr %23, align 8, !tbaa !36
  %25 = icmp ne ptr %24, null
  br i1 %25, label %27, label %26

26:                                               ; preds = %18
  store i32 -12, ptr %2, align 4
  store i32 1, ptr %6, align 4
  br label %67

27:                                               ; preds = %18
  %28 = call ptr @avcodec_alloc_context3(ptr noundef @ff_mjpeg_decoder)
  %29 = load ptr, ptr %4, align 8, !tbaa !29
  %30 = getelementptr inbounds nuw %struct.CRIContext, ptr %29, i32 0, i32 0
  store ptr %28, ptr %30, align 8, !tbaa !37
  %31 = load ptr, ptr %4, align 8, !tbaa !29
  %32 = getelementptr inbounds nuw %struct.CRIContext, ptr %31, i32 0, i32 0
  %33 = load ptr, ptr %32, align 8, !tbaa !37
  %34 = icmp ne ptr %33, null
  br i1 %34, label %36, label %35

35:                                               ; preds = %27
  store i32 -12, ptr %2, align 4
  store i32 1, ptr %6, align 4
  br label %67

36:                                               ; preds = %27
  %37 = load ptr, ptr %3, align 8, !tbaa !4
  %38 = getelementptr inbounds nuw %struct.AVCodecContext, ptr %37, i32 0, i32 10
  %39 = load i32, ptr %38, align 8, !tbaa !38
  %40 = load ptr, ptr %4, align 8, !tbaa !29
  %41 = getelementptr inbounds nuw %struct.CRIContext, ptr %40, i32 0, i32 0
  %42 = load ptr, ptr %41, align 8, !tbaa !37
  %43 = getelementptr inbounds nuw %struct.AVCodecContext, ptr %42, i32 0, i32 10
  store i32 %39, ptr %43, align 8, !tbaa !38
  %44 = load ptr, ptr %3, align 8, !tbaa !4
  %45 = getelementptr inbounds nuw %struct.AVCodecContext, ptr %44, i32 0, i32 11
  %46 = load i32, ptr %45, align 4, !tbaa !39
  %47 = load ptr, ptr %4, align 8, !tbaa !29
  %48 = getelementptr inbounds nuw %struct.CRIContext, ptr %47, i32 0, i32 0
  %49 = load ptr, ptr %48, align 8, !tbaa !37
  %50 = getelementptr inbounds nuw %struct.AVCodecContext, ptr %49, i32 0, i32 11
  store i32 %46, ptr %50, align 4, !tbaa !39
  %51 = load ptr, ptr %3, align 8, !tbaa !4
  %52 = getelementptr inbounds nuw %struct.AVCodecContext, ptr %51, i32 0, i32 113
  %53 = load i32, ptr %52, align 4, !tbaa !40
  %54 = load ptr, ptr %4, align 8, !tbaa !29
  %55 = getelementptr inbounds nuw %struct.CRIContext, ptr %54, i32 0, i32 0
  %56 = load ptr, ptr %55, align 8, !tbaa !37
  %57 = getelementptr inbounds nuw %struct.AVCodecContext, ptr %56, i32 0, i32 113
  store i32 %53, ptr %57, align 4, !tbaa !40
  %58 = load ptr, ptr %4, align 8, !tbaa !29
  %59 = getelementptr inbounds nuw %struct.CRIContext, ptr %58, i32 0, i32 0
  %60 = load ptr, ptr %59, align 8, !tbaa !37
  %61 = call i32 @avcodec_open2(ptr noundef %60, ptr noundef null, ptr noundef null)
  store i32 %61, ptr %5, align 4, !tbaa !41
  %62 = load i32, ptr %5, align 4, !tbaa !41
  %63 = icmp slt i32 %62, 0
  br i1 %63, label %64, label %66

64:                                               ; preds = %36
  %65 = load i32, ptr %5, align 4, !tbaa !41
  store i32 %65, ptr %2, align 4
  store i32 1, ptr %6, align 4
  br label %67

66:                                               ; preds = %36
  store i32 0, ptr %2, align 4
  store i32 1, ptr %6, align 4
  br label %67

67:                                               ; preds = %66, %64, %35, %26, %17
  call void @llvm.lifetime.end.p0(i64 4, ptr %5) #10
  call void @llvm.lifetime.end.p0(i64 8, ptr %4) #10
  %68 = load i32, ptr %2, align 4
  ret i32 %68
}