; Function Attrs: cold nounwind optsize uwtable
define internal range(i32 -2147483648, 1) i32 @cri_decode_init(ptr noundef readonly captures(none) %0) #0 {
  %2 = getelementptr inbounds nuw i8, ptr %0, i64 32
  %3 = load ptr, ptr %2, align 8, !tbaa !4
  %4 = tail call ptr @av_frame_alloc() #9
  %5 = getelementptr inbounds nuw i8, ptr %3, i64 16
  store ptr %4, ptr %5, align 8, !tbaa !27
  %.not = icmp eq ptr %4, null
  br i1 %.not, label %22, label %6

6:                                                ; preds = %1
  %7 = tail call ptr @av_packet_alloc() #9
  %8 = getelementptr inbounds nuw i8, ptr %3, i64 8
  store ptr %7, ptr %8, align 8, !tbaa !33
  %.not18 = icmp eq ptr %7, null
  br i1 %.not18, label %22, label %9

9:                                                ; preds = %6
  %10 = tail call ptr @avcodec_alloc_context3(ptr noundef nonnull @ff_mjpeg_decoder) #9
  store ptr %10, ptr %3, align 8, !tbaa !34
  %.not19 = icmp eq ptr %10, null
  br i1 %.not19, label %22, label %11

11:                                               ; preds = %9
  %12 = getelementptr inbounds nuw i8, ptr %0, i64 64
  %13 = load i32, ptr %12, align 8, !tbaa !35
  %14 = getelementptr inbounds nuw i8, ptr %10, i64 64
  store i32 %13, ptr %14, align 8, !tbaa !35
  %15 = getelementptr inbounds nuw i8, ptr %0, i64 68
  %16 = load i32, ptr %15, align 4, !tbaa !36
  %17 = getelementptr inbounds nuw i8, ptr %10, i64 68
  store i32 %16, ptr %17, align 4, !tbaa !36
  %18 = getelementptr inbounds nuw i8, ptr %0, i64 644
  %19 = load i32, ptr %18, align 4, !tbaa !37
  %20 = getelementptr inbounds nuw i8, ptr %10, i64 644
  store i32 %19, ptr %20, align 4, !tbaa !37
  %21 = tail call i32 @avcodec_open2(ptr noundef nonnull %10, ptr noundef null, ptr noundef null) #9
  %. = tail call i32 @llvm.smin.i32(i32 %21, i32 0)
  br label %22

22:                                               ; preds = %11, %9, %6, %1
  %.0 = phi i32 [ -12, %1 ], [ -12, %6 ], [ -12, %9 ], [ %., %11 ]
  ret i32 %.0
}